target datalayout = "e-m:e-p270:32:32-p271:32:32-p272:64:64-i64:64-i128:128-f80:128-n8:16:32:64-S128"
target triple = "x86_64-pc-linux-gnu"

%struct.evp_cipher_ctx_st = type { ptr, ptr, i32, i32, [16 x i8], [16 x i8], [32 x i8], i32, ptr, i32, i32, i64, ptr, i32, i32, [32 x i8], i64, ptr, ptr }
%struct.EVP_AES_XTS_CTX = type { %union.anon.3, %union.anon.3, %struct.xts128_context, ptr }
%union.anon.3 = type { double, [240 x i8] }
%struct.xts128_context = type { ptr, ptr, ptr, ptr }

@.str = private unnamed_addr constant [30 x i8] c"../openssl/crypto/evp/e_aes.c\00", align 1
@__func__.aes_xts_cipher = private unnamed_addr constant [15 x i8] c"aes_xts_cipher\00", align 1

; Function Attrs: nounwind uwtable
define internal i32 @aes_xts_cipher(ptr noundef %0, ptr noundef %1, ptr noundef %2, i64 noundef %3) #0 {
  %5 = alloca i32, align 4
  %6 = alloca ptr, align 8
  %7 = alloca ptr, align 8
  %8 = alloca ptr, align 8
  %9 = alloca i64, align 8
  %10 = alloca ptr, align 8
  %11 = alloca i32, align 4
  store ptr %0, ptr %6, align 8, !tbaa !7
  store ptr %1, ptr %7, align 8, !tbaa !10
  store ptr %2, ptr %8, align 8, !tbaa !10
  store i64 %3, ptr %9, align 8, !tbaa !16
  call void @llvm.lifetime.start.p0(i64 8, ptr %10) #4
  %12 = load ptr, ptr %6, align 8, !tbaa !7
  %13 = call ptr @EVP_CIPHER_CTX_get_cipher_data(ptr noundef %12)
  store ptr %13, ptr %10, align 8, !tbaa !12
  %14 = load ptr, ptr %10, align 8, !tbaa !12
  %15 = getelementptr inbounds nuw %struct.EVP_AES_XTS_CTX, ptr %14, i32 0, i32 2
  %16 = getelementptr inbounds nuw %struct.xts128_context, ptr %15, i32 0, i32 0
  %17 = load ptr, ptr %16, align 8, !tbaa !47
  %18 = icmp eq ptr %17, null
  br i1 %18, label %34, label %19

19:                                               ; preds = %4
  %20 = load ptr, ptr %10, align 8, !tbaa !12
  %21 = getelementptr inbounds nuw %struct.EVP_AES_XTS_CTX, ptr %20, i32 0, i32 2
  %22 = getelementptr inbounds nuw %struct.xts128_context, ptr %21, i32 0, i32 1
  %23 = load ptr, ptr %22, align 8, !tbaa !48
  %24 = icmp eq ptr %23, null
  br i1 %24, label %34, label %25

25:                                               ; preds = %19
  %26 = load ptr, ptr %7, align 8, !tbaa !10
  %27 = icmp eq ptr %26, null
  br i1 %27, label %34, label %28

28:                                               ; preds = %25
  %29 = load ptr, ptr %8, align 8, !tbaa !10
  %30 = icmp eq ptr %29, null
  br i1 %30, label %34, label %31

31:                                               ; preds = %28
  %32 = load i64, ptr %9, align 8, !tbaa !16
  %33 = icmp ult i64 %32, 16
  br i1 %33, label %34, label %35

34:                                               ; preds = %31, %28, %25, %19, %4
  store i32 0, ptr %5, align 4
  store i32 1, ptr %11, align 4
  br label %78

35:                                               ; preds = %31
  %36 = load i64, ptr %9, align 8, !tbaa !16
  %37 = icmp ugt i64 %36, 16777216
  br i1 %37, label %38, label %39

38:                                               ; preds = %35
  call void @ERR_new()
  call void @ERR_set_debug(ptr noundef @.str, i32 noundef 3354, ptr noundef @__func__.aes_xts_cipher)
  call void (i32, i32, ptr, ...) @ERR_set_error(i32 noundef 6, i32 noundef 191, ptr noundef null)
  store i32 0, ptr %5, align 4
  store i32 1, ptr %11, align 4
  br label %78

39:                                               ; preds = %35
  %40 = load ptr, ptr %10, align 8, !tbaa !12
  %41 = getelementptr inbounds nuw %struct.EVP_AES_XTS_CTX, ptr %40, i32 0, i32 3
  %42 = load ptr, ptr %41, align 8, !tbaa !45
  %43 = icmp ne ptr %42, null
  br i1 %43, label %44, label %62

44:                                               ; preds = %39
  %45 = load ptr, ptr %10, align 8, !tbaa !12
  %46 = getelementptr inbounds nuw %struct.EVP_AES_XTS_CTX, ptr %45, i32 0, i32 3
  %47 = load ptr, ptr %46, align 8, !tbaa !45
  %48 = load ptr, ptr %8, align 8, !tbaa !10
  %49 = load ptr, ptr %7, align 8, !tbaa !10
  %50 = load i64, ptr %9, align 8, !tbaa !16
  %51 = load ptr, ptr %10, align 8, !tbaa !12
  %52 = getelementptr inbounds nuw %struct.EVP_AES_XTS_CTX, ptr %51, i32 0, i32 2
  %53 = getelementptr inbounds nuw %struct.xts128_context, ptr %52, i32 0, i32 0
  %54 = load ptr, ptr %53, align 8, !tbaa !47
  %55 = load ptr, ptr %10, align 8, !tbaa !12
  %56 = getelementptr inbounds nuw %struct.EVP_AES_XTS_CTX, ptr %55, i32 0, i32 2
  %57 = getelementptr inbounds nuw %struct.xts128_context, ptr %56, i32 0, i32 1
  %58 = load ptr, ptr %57, align 8, !tbaa !48
  %59 = load ptr, ptr %6, align 8, !tbaa !7
  %60 = getelementptr inbounds nuw %struct.evp_cipher_ctx_st, ptr %59, i32 0, i32 5
  %61 = getelementptr inbounds [16 x i8], ptr %60, i64 0, i64 0
  call void %47(ptr noundef %48, ptr noundef %49, i64 noundef %50, ptr noundef %54, ptr noundef %58, ptr noundef %61)
  br label %77

62:                                               ; preds = %39
  %63 = load ptr, ptr %10, align 8, !tbaa !12
  %64 = getelementptr inbounds nuw %struct.EVP_AES_XTS_CTX, ptr %63, i32 0, i32 2
  %65 = load ptr, ptr %6, align 8, !tbaa !7
  %66 = getelementptr inbounds nuw %struct.evp_cipher_ctx_st, ptr %65, i32 0, i32 5
  %67 = getelementptr inbounds [16 x i8], ptr %66, i64 0, i64 0
  %68 = load ptr, ptr %8, align 8, !tbaa !10
  %69 = load ptr, ptr %7, align 8, !tbaa !10
  %70 = load i64, ptr %9, align 8, !tbaa !16
  %71 = load ptr, ptr %6, align 8, !tbaa !7
  %72 = call i32 @EVP_CIPHER_CTX_is_encrypting(ptr noundef %71)
  %73 = call i32 @CRYPTO_xts128_encrypt(ptr noundef %64, ptr noundef %67, ptr noundef %68, ptr noundef %69, i64 noundef %70, i32 noundef %72)
  %74 = icmp ne i32 %73, 0
  br i1 %74, label %75, label %76

75:                                               ; preds = %62
  store i32 0, ptr %5, align 4
  store i32 1, ptr %11, align 4
  br label %78

76:                                               ; preds = %62
  br label %77

77:                                               ; preds = %76, %44
  store i32 1, ptr %5, align 4
  store i32 1, ptr %11, align 4
  br label %78

78:                                               ; preds = %77, %75, %38, %34
  call void @llvm.lifetime.end.p0(i64 8, ptr %10) #4
  %79 = load i32, ptr %5, align 4
  ret i32 %79
}