; Function Attrs: nounwind uwtable
define internal range(i32 0, 2) i32 @aes_xts_cipher(ptr noundef %0, ptr noundef %1, ptr noundef %2, i64 noundef %3) #2 {
  %5 = tail call ptr @EVP_CIPHER_CTX_get_cipher_data(ptr noundef %0) #8
  %6 = getelementptr inbounds nuw i8, ptr %5, i64 496
  %7 = load ptr, ptr %6, align 8, !tbaa !42
  %8 = icmp eq ptr %7, null
  br i1 %8, label %28, label %9

9:                                                ; preds = %4
  %10 = getelementptr inbounds nuw i8, ptr %5, i64 504
  %11 = load ptr, ptr %10, align 8, !tbaa !43
  %12 = icmp eq ptr %11, null
  %13 = icmp eq ptr %1, null
  %or.cond = or i1 %13, %12
  %14 = icmp eq ptr %2, null
  %or.cond3 = or i1 %14, %or.cond
  %15 = icmp ult i64 %3, 16
  %or.cond5 = or i1 %15, %or.cond3
  br i1 %or.cond5, label %28, label %16

16:                                               ; preds = %9
  %17 = icmp ugt i64 %3, 16777216
  br i1 %17, label %18, label %19

18:                                               ; preds = %16
  tail call void @ERR_new() #8
  tail call void @ERR_set_debug(ptr noundef nonnull @.str, i32 noundef 3354, ptr noundef nonnull @__func__.aes_xts_cipher) #8
  tail call void (i32, i32, ptr, ...) @ERR_set_error(i32 noundef 6, i32 noundef 191, ptr noundef null) #8
  br label %28

19:                                               ; preds = %16
  %20 = getelementptr inbounds nuw i8, ptr %5, i64 528
  %21 = load ptr, ptr %20, align 8, !tbaa !40
  %.not = icmp eq ptr %21, null
  %22 = getelementptr inbounds nuw i8, ptr %0, i64 40
  br i1 %.not, label %24, label %23

23:                                               ; preds = %19
  tail call void %21(ptr noundef nonnull %2, ptr noundef nonnull %1, i64 noundef %3, ptr noundef nonnull %7, ptr noundef nonnull %11, ptr noundef nonnull %22) #8
  br label %27

24:                                               ; preds = %19
  %25 = tail call i32 @EVP_CIPHER_CTX_is_encrypting(ptr noundef %0) #8
  %26 = tail call i32 @CRYPTO_xts128_encrypt(ptr noundef nonnull %6, ptr noundef nonnull %22, ptr noundef nonnull %2, ptr noundef nonnull %1, i64 noundef %3, i32 noundef %25) #8
  %.not32 = icmp eq i32 %26, 0
  br i1 %.not32, label %27, label %28

27:                                               ; preds = %24, %23
  br label %28

28:                                               ; preds = %24, %4, %9, %27, %18
  %.0 = phi i32 [ 0, %18 ], [ 1, %27 ], [ 0, %9 ], [ 0, %4 ], [ 0, %24 ]
  ret i32 %.0
}